; Function Attrs: nounwind uwtable
define void @_ZTv0_n24_N5osgeo4proj9operation14TransformationD0Ev(ptr noundef %0) unnamed_addr #4 align 2 {
  %2 = load ptr, ptr %0, align 8
  %3 = getelementptr inbounds i8, ptr %2, i64 -24
  %4 = load i64, ptr %3, align 8
  %5 = getelementptr inbounds i8, ptr %0, i64 %4
  tail call void @_ZN5osgeo4proj9operation14TransformationD2Ev(ptr noundef nonnull align 8 dereferenceable(24) %5, ptr noundef nonnull @_ZTTN5osgeo4proj9operation14TransformationE) #21
  %6 = getelementptr inbounds i8, ptr %5, i64 24
  tail call void @_ZN5osgeo4proj9operation19CoordinateOperationD2Ev(ptr noundef nonnull align 8 dereferenceable(72) %6) #21
  tail call void @_ZdlPv(ptr noundef nonnull %5) #22
  ret void
}